target datalayout = "e-m:e-p270:32:32-p271:32:32-p272:64:64-i64:64-i128:128-f80:128-n8:16:32:64-S128"
target triple = "x86_64-pc-linux-gnu"

%struct.PgStat_LocalState = type { ptr, ptr, ptr, %struct.PgStat_Snapshot }
%struct.PgStat_Snapshot = type { i32, i64, [13 x i8], %struct.PgStat_ArchiverStats, %struct.PgStat_BgWriterStats, %struct.PgStat_CheckpointerStats, %struct.PgStat_IO, [8 x %struct.PgStat_SLRUStats], %struct.PgStat_WalStats, [129 x i8], [129 x ptr], ptr, ptr }
%struct.PgStat_ArchiverStats = type { i64, [41 x i8], i64, i64, [41 x i8], i64, i64 }
%struct.PgStat_BgWriterStats = type { i64, i64, i64, i64 }
%struct.PgStat_CheckpointerStats = type { i64, i64, i64, i64, i64, i64, i64, i64, i64, i64, i64 }
%struct.PgStat_IO = type { i64, [17 x %struct.PgStat_BktypeIO] }
%struct.PgStat_BktypeIO = type { [3 x [5 x [8 x i64]]], [3 x [5 x [8 x i64]]], [3 x [5 x [8 x i64]]] }
%struct.PgStat_SLRUStats = type { i64, i64, i64, i64, i64, i64, i64, i64 }
%struct.PgStat_WalStats = type { i64, i64, i64, i64, i64, i64, i64, i64, i64 }
%struct.PgStat_KindInfo = type { i8, i32, i32, i32, i32, i32, i32, ptr, ptr, ptr, ptr, ptr, ptr, ptr, ptr, ptr, ptr, ptr, ptr }

@pgStatLocal = dso_local global %struct.PgStat_LocalState zeroinitializer, align 8
@TopMemoryContext = external global ptr, align 8
@pgstat_kind_custom_infos = internal global ptr null, align 8

; Function Attrs: inlinehint nounwind uwtable
define internal zeroext i1 @pgstat_is_kind_custom(i32 noundef %0) #6 {
  %2 = alloca i32, align 4
  store i32 %0, ptr %2, align 4
  %3 = load i32, ptr %2, align 4
  %4 = icmp uge i32 %3, 128
  br i1 %4, label %5, label %8

5:                                                ; preds = %1
  %6 = load i32, ptr %2, align 4
  %7 = icmp ule i32 %6, 256
  br label %8

8:                                                ; preds = %5, %1
  %9 = phi i1 [ false, %1 ], [ %7, %5 ]
  ret i1 %9
}

; Function Attrs: inlinehint nounwind uwtable
define internal zeroext i1 @pgstat_is_kind_builtin(i32 noundef %0) #6 {
  %2 = alloca i32, align 4
  store i32 %0, ptr %2, align 4
  %3 = load i32, ptr %2, align 4
  %4 = icmp uge i32 %3, 1
  br i1 %4, label %5, label %8

5:                                                ; preds = %1
  %6 = load i32, ptr %2, align 4
  %7 = icmp ule i32 %6, 12
  br label %8

8:                                                ; preds = %5, %1
  %9 = phi i1 [ false, %1 ], [ %7, %5 ]
  ret i1 %9
}

; Function Attrs: nounwind uwtable
define dso_local ptr @pgstat_get_kind_info(i32 noundef %0) #0 {
  %2 = alloca ptr, align 8
  %3 = alloca i32, align 4
  %4 = alloca i32, align 4
  %5 = alloca i32, align 4
  store i32 %0, ptr %3, align 4
  %6 = load i32, ptr %3, align 4
  %7 = call zeroext i1 @pgstat_is_kind_builtin(i32 noundef %6)
  br i1 %7, label %8, label %12

8:                                                ; preds = %1
  %9 = load i32, ptr %3, align 4
  %10 = zext i32 %9 to i64
  %11 = getelementptr inbounds nuw [13 x %struct.PgStat_KindInfo], ptr @pgstat_kind_builtin_infos, i64 0, i64 %10
  store ptr %11, ptr %2, align 8
  br label %36

12:                                               ; preds = %1
  %13 = load i32, ptr %3, align 4
  %14 = call zeroext i1 @pgstat_is_kind_custom(i32 noundef %13)
  br i1 %14, label %15, label %35

15:                                               ; preds = %12
  call void @llvm.lifetime.start.p0(i64 4, ptr %4) #12
  %16 = load i32, ptr %3, align 4
  %17 = sub i32 %16, 128
  store i32 %17, ptr %4, align 4
  %18 = load ptr, ptr @pgstat_kind_custom_infos, align 8
  %19 = icmp eq ptr %18, null
  br i1 %19, label %27, label %20

20:                                               ; preds = %15
  %21 = load ptr, ptr @pgstat_kind_custom_infos, align 8
  %22 = load i32, ptr %4, align 4
  %23 = zext i32 %22 to i64
  %24 = getelementptr inbounds nuw ptr, ptr %21, i64 %23
  %25 = load ptr, ptr %24, align 8
  %26 = icmp eq ptr %25, null
  br i1 %26, label %27, label %28

27:                                               ; preds = %20, %15
  store ptr null, ptr %2, align 8
  store i32 1, ptr %5, align 4
  br label %34

28:                                               ; preds = %20
  %29 = load ptr, ptr @pgstat_kind_custom_infos, align 8
  %30 = load i32, ptr %4, align 4
  %31 = zext i32 %30 to i64
  %32 = getelementptr inbounds nuw ptr, ptr %29, i64 %31
  %33 = load ptr, ptr %32, align 8
  store ptr %33, ptr %2, align 8
  store i32 1, ptr %5, align 4
  br label %34

34:                                               ; preds = %28, %27
  call void @llvm.lifetime.end.p0(i64 4, ptr %4) #12
  br label %36

35:                                               ; preds = %12
  store ptr null, ptr %2, align 8
  br label %36

36:                                               ; preds = %35, %34, %8
  %37 = load ptr, ptr %2, align 8
  ret ptr %37
}

; Function Attrs: nounwind uwtable
define internal void @pgstat_init_snapshot_fixed() #0 {
  %1 = alloca i32, align 4
  %2 = alloca i32, align 4
  %3 = alloca ptr, align 8
  call void @llvm.lifetime.start.p0(i64 4, ptr %1) #12
  store i32 128, ptr %1, align 4
  br label %4

4:                                                ; preds = %33, %0
  %5 = load i32, ptr %1, align 4
  %6 = icmp ule i32 %5, 256
  br i1 %6, label %8, label %7

7:                                                ; preds = %4
  store i32 2, ptr %2, align 4
  call void @llvm.lifetime.end.p0(i64 4, ptr %1) #12
  br label %36

8:                                                ; preds = %4
  call void @llvm.lifetime.start.p0(i64 8, ptr %3) #12
  %9 = load i32, ptr %1, align 4
  %10 = call ptr @pgstat_get_kind_info(i32 noundef %9)
  store ptr %10, ptr %3, align 8
  %11 = load ptr, ptr %3, align 8
  %12 = icmp ne ptr %11, null
  br i1 %12, label %13, label %18

13:                                               ; preds = %8
  %14 = load ptr, ptr %3, align 8
  %15 = load i8, ptr %14, align 8
  %16 = and i8 %15, 1
  %17 = trunc i8 %16 to i1
  br i1 %17, label %19, label %18

18:                                               ; preds = %13, %8
  store i32 4, ptr %2, align 4
  br label %30

19:                                               ; preds = %13
  %20 = load ptr, ptr @TopMemoryContext, align 8
  %21 = load ptr, ptr %3, align 8
  %22 = getelementptr inbounds nuw %struct.PgStat_KindInfo, ptr %21, i32 0, i32 5
  %23 = load i32, ptr %22, align 4
  %24 = zext i32 %23 to i64
  %25 = call ptr @MemoryContextAlloc(ptr noundef %20, i64 noundef %24)
  %26 = load i32, ptr %1, align 4
  %27 = sub i32 %26, 128
  %28 = zext i32 %27 to i64
  %29 = getelementptr inbounds nuw [129 x ptr], ptr getelementptr inbounds nuw (%struct.PgStat_Snapshot, ptr getelementptr inbounds nuw (%struct.PgStat_LocalState, ptr @pgStatLocal, i32 0, i32 3), i32 0, i32 10), i64 0, i64 %28
  store ptr %25, ptr %29, align 8
  store i32 0, ptr %2, align 4
  br label %30

30:                                               ; preds = %19, %18
  call void @llvm.lifetime.end.p0(i64 8, ptr %3) #12
  %31 = load i32, ptr %2, align 4
  switch i32 %31, label %37 [
    i32 0, label %32
    i32 4, label %33
  ]

32:                                               ; preds = %30
  br label %33

33:                                               ; preds = %32, %30
  %34 = load i32, ptr %1, align 4
  %35 = add i32 %34, 1
  store i32 %35, ptr %1, align 4
  br label %4, !llvm.loop !13

36:                                               ; preds = %7
  ret void

37:                                               ; preds = %30
  unreachable
}

; Function Attrs: nounwind uwtable
define dso_local void @pgstat_initialize() #0 {
  %1 = alloca i32, align 4
  %2 = alloca i32, align 4
  %3 = alloca ptr, align 8
  call void @pgstat_attach_shmem()
  call void @pgstat_init_snapshot_fixed()
  call void @llvm.lifetime.start.p0(i64 4, ptr %1) #12
  store i32 1, ptr %1, align 4
  br label %4

4:                                                ; preds = %26, %0
  %5 = load i32, ptr %1, align 4
  %6 = icmp ule i32 %5, 256
  br i1 %6, label %8, label %7

7:                                                ; preds = %4
  store i32 2, ptr %2, align 4
  call void @llvm.lifetime.end.p0(i64 4, ptr %1) #12
  br label %29

8:                                                ; preds = %4
  call void @llvm.lifetime.start.p0(i64 8, ptr %3) #12
  %9 = load i32, ptr %1, align 4
  %10 = call ptr @pgstat_get_kind_info(i32 noundef %9)
  store ptr %10, ptr %3, align 8
  %11 = load ptr, ptr %3, align 8
  %12 = icmp eq ptr %11, null
  br i1 %12, label %18, label %13

13:                                               ; preds = %8
  %14 = load ptr, ptr %3, align 8
  %15 = getelementptr inbounds nuw %struct.PgStat_KindInfo, ptr %14, i32 0, i32 7
  %16 = load ptr, ptr %15, align 8
  %17 = icmp eq ptr %16, null
  br i1 %17, label %18, label %19

18:                                               ; preds = %13, %8
  store i32 4, ptr %2, align 4
  br label %23

19:                                               ; preds = %13
  %20 = load ptr, ptr %3, align 8
  %21 = getelementptr inbounds nuw %struct.PgStat_KindInfo, ptr %20, i32 0, i32 7
  %22 = load ptr, ptr %21, align 8
  call void %22()
  store i32 0, ptr %2, align 4
  br label %23

23:                                               ; preds = %19, %18
  call void @llvm.lifetime.end.p0(i64 8, ptr %3) #12
  %24 = load i32, ptr %2, align 4
  switch i32 %24, label %30 [
    i32 0, label %25
    i32 4, label %26
  ]

25:                                               ; preds = %23
  br label %26

26:                                               ; preds = %25, %23
  %27 = load i32, ptr %1, align 4
  %28 = add i32 %27, 1
  store i32 %28, ptr %1, align 4
  br label %4, !llvm.loop !12

29:                                               ; preds = %7
  call void @before_shmem_exit(ptr noundef @pgstat_shutdown_hook, i64 noundef 0)
  ret void

30:                                               ; preds = %23
  unreachable
}