; Function Attrs: nounwind uwtable
define dso_local void @pgstat_initialize() local_unnamed_addr #0 {
  tail call void @pgstat_attach_shmem() #17
  %1 = load ptr, ptr @pgstat_kind_custom_infos, align 8
  %2 = icmp eq ptr %1, null
  br i1 %2, label %pgstat_init_snapshot_fixed.exit.preheader.preheader, label %.split

pgstat_init_snapshot_fixed.exit.preheader.preheader: ; preds = %pgstat_get_kind_info.exit.thread.i, %0
  br label %pgstat_init_snapshot_fixed.exit.preheader

.split:                                           ; preds = %0, %pgstat_get_kind_info.exit.thread.i
  %3 = phi ptr [ %19, %pgstat_get_kind_info.exit.thread.i ], [ %1, %0 ]
  %indvars.iv.i = phi i64 [ %indvars.iv.next.i, %pgstat_get_kind_info.exit.thread.i ], [ 128, %0 ]
  %4 = icmp eq ptr %3, null
  br i1 %4, label %pgstat_get_kind_info.exit.thread.i, label %pgstat_get_kind_info.exit.i

pgstat_get_kind_info.exit.i:                      ; preds = %.split
  %5 = getelementptr ptr, ptr %3, i64 %indvars.iv.i
  %6 = getelementptr i8, ptr %5, i64 -1024
  %7 = load ptr, ptr %6, align 8
  %.not.i = icmp eq ptr %7, null
  br i1 %.not.i, label %pgstat_get_kind_info.exit.thread.i, label %8

8:                                                ; preds = %pgstat_get_kind_info.exit.i
  %9 = load i8, ptr %7, align 8
  %10 = trunc i8 %9 to i1
  br i1 %10, label %11, label %pgstat_get_kind_info.exit.thread.i

11:                                               ; preds = %8
  %12 = load ptr, ptr @TopMemoryContext, align 8
  %13 = getelementptr inbounds nuw i8, ptr %7, i64 20
  %14 = load i32, ptr %13, align 4
  %15 = zext i32 %14 to i64
  %16 = tail call ptr @MemoryContextAlloc(ptr noundef %12, i64 noundef %15) #17
  %17 = add nsw i64 %indvars.iv.i, -128
  %18 = getelementptr inbounds nuw [129 x ptr], ptr getelementptr inbounds nuw (i8, ptr @pgStatLocal, i64 50000), i64 0, i64 %17
  store ptr %16, ptr %18, align 8
  %.pre = load ptr, ptr @pgstat_kind_custom_infos, align 8
  br label %pgstat_get_kind_info.exit.thread.i

pgstat_get_kind_info.exit.thread.i:               ; preds = %11, %8, %pgstat_get_kind_info.exit.i, %.split
  %19 = phi ptr [ %.pre, %11 ], [ %3, %8 ], [ %3, %pgstat_get_kind_info.exit.i ], [ null, %.split ]
  %indvars.iv.next.i = add nuw nsw i64 %indvars.iv.i, 1
  %exitcond.not.i = icmp eq i64 %indvars.iv.next.i, 257
  br i1 %exitcond.not.i, label %pgstat_init_snapshot_fixed.exit.preheader.preheader, label %.split, !llvm.loop !14

20:                                               ; preds = %pgstat_get_kind_info.exit.thread
  tail call void @before_shmem_exit(ptr noundef nonnull @pgstat_shutdown_hook, i64 noundef 0) #17
  ret void

pgstat_init_snapshot_fixed.exit.preheader:        ; preds = %pgstat_init_snapshot_fixed.exit.preheader.preheader, %pgstat_get_kind_info.exit.thread
  %indvars.iv = phi i64 [ %indvars.iv.next, %pgstat_get_kind_info.exit.thread ], [ 1, %pgstat_init_snapshot_fixed.exit.preheader.preheader ]
  %21 = icmp samesign ult i64 %indvars.iv, 13
  br i1 %21, label %pgstat_get_kind_info.exit.thread8, label %23

pgstat_get_kind_info.exit.thread8:                ; preds = %pgstat_init_snapshot_fixed.exit.preheader
  %22 = getelementptr inbounds nuw [13 x %struct.PgStat_KindInfo], ptr @pgstat_kind_builtin_infos, i64 0, i64 %indvars.iv
  br label %32

23:                                               ; preds = %pgstat_init_snapshot_fixed.exit.preheader
  %24 = add nsw i64 %indvars.iv, -128
  %25 = icmp ult i64 %24, 129
  br i1 %25, label %26, label %pgstat_get_kind_info.exit.thread

26:                                               ; preds = %23
  %27 = load ptr, ptr @pgstat_kind_custom_infos, align 8
  %28 = icmp eq ptr %27, null
  br i1 %28, label %pgstat_get_kind_info.exit.thread, label %pgstat_get_kind_info.exit

pgstat_get_kind_info.exit:                        ; preds = %26
  %29 = getelementptr inbounds nuw ptr, ptr %27, i64 %24
  %30 = load ptr, ptr %29, align 8
  %31 = icmp eq ptr %30, null
  br i1 %31, label %pgstat_get_kind_info.exit.thread, label %32

32:                                               ; preds = %pgstat_get_kind_info.exit.thread8, %pgstat_get_kind_info.exit
  %.0.i10 = phi ptr [ %22, %pgstat_get_kind_info.exit.thread8 ], [ %30, %pgstat_get_kind_info.exit ]
  %33 = getelementptr inbounds nuw i8, ptr %.0.i10, i64 32
  %34 = load ptr, ptr %33, align 8
  %35 = icmp eq ptr %34, null
  br i1 %35, label %pgstat_get_kind_info.exit.thread, label %36

36:                                               ; preds = %32
  tail call void %34() #17
  br label %pgstat_get_kind_info.exit.thread

pgstat_get_kind_info.exit.thread:                 ; preds = %23, %26, %pgstat_get_kind_info.exit, %32, %36
  %indvars.iv.next = add nuw nsw i64 %indvars.iv, 1
  %exitcond.not = icmp eq i64 %indvars.iv.next, 257
  br i1 %exitcond.not, label %20, label %pgstat_init_snapshot_fixed.exit.preheader, !llvm.loop !16
}